target datalayout = "e-m:e-p270:32:32-p271:32:32-p272:64:64-i64:64-i128:128-f80:128-n8:16:32:64-S128"
target triple = "x86_64-pc-linux-gnu"

%struct.quic_test_case = type { [16 x i8], i64, i64 }
%struct.PACKET = type { ptr, i64 }

@.str.25 = private unnamed_addr constant [29 x i8] c"../openssl/test/packettest.c\00", align 1
@.str.27 = private unnamed_addr constant [23 x i8] c"PACKET_remaining(&pkt)\00", align 1
@.str.126 = private unnamed_addr constant [58 x i8] c"PACKET_buf_init(&pkt, cases[i].buf, sizeof(cases[i].buf))\00", align 1
@.str.127 = private unnamed_addr constant [32 x i8] c"PACKET_get_quic_vlint(&pkt, &v)\00", align 1
@.str.128 = private unnamed_addr constant [2 x i8] c"v\00", align 1
@.str.129 = private unnamed_addr constant [15 x i8] c"cases[i].value\00", align 1
@.str.130 = private unnamed_addr constant [52 x i8] c"sizeof(cases[i].buf) - cases[i].expected_read_count\00", align 1

; Function Attrs: inlinehint nounwind uwtable
define internal void @packet_forward(ptr noundef %0, i64 noundef %1) #4 {
  %3 = alloca ptr, align 8
  %4 = alloca i64, align 8
  store ptr %0, ptr %3, align 8, !tbaa !33
  store i64 %1, ptr %4, align 8, !tbaa !11
  %5 = load i64, ptr %4, align 8, !tbaa !11
  %6 = load ptr, ptr %3, align 8, !tbaa !33
  %7 = getelementptr inbounds nuw %struct.PACKET, ptr %6, i32 0, i32 0
  %8 = load ptr, ptr %7, align 8, !tbaa !29
  %9 = getelementptr inbounds nuw i8, ptr %8, i64 %5
  store ptr %9, ptr %7, align 8, !tbaa !29
  %10 = load i64, ptr %4, align 8, !tbaa !11
  %11 = load ptr, ptr %3, align 8, !tbaa !33
  %12 = getelementptr inbounds nuw %struct.PACKET, ptr %11, i32 0, i32 1
  %13 = load i64, ptr %12, align 8, !tbaa !31
  %14 = sub i64 %13, %10
  store i64 %14, ptr %12, align 8, !tbaa !31
  ret void
}

; Function Attrs: inlinehint nounwind uwtable
define internal i64 @ossl_quic_vlint_decode_len(i8 noundef zeroext %0) #4 {
  %2 = alloca i8, align 1
  store i8 %0, ptr %2, align 1, !tbaa !8
  %3 = load i8, ptr %2, align 1, !tbaa !8
  %4 = zext i8 %3 to i32
  %5 = and i32 %4, 192
  %6 = ashr i32 %5, 6
  %7 = shl i32 1, %6
  %8 = zext i32 %7 to i64
  ret i64 %8
}

; Function Attrs: inlinehint nounwind uwtable
define internal i64 @PACKET_remaining(ptr noundef %0) #4 {
  %2 = alloca ptr, align 8
  store ptr %0, ptr %2, align 8, !tbaa !33
  %3 = load ptr, ptr %2, align 8, !tbaa !33
  %4 = getelementptr inbounds nuw %struct.PACKET, ptr %3, i32 0, i32 1
  %5 = load i64, ptr %4, align 8, !tbaa !31
  ret i64 %5
}

; Function Attrs: inlinehint nounwind uwtable
define internal i32 @PACKET_get_quic_vlint(ptr noundef %0, ptr noundef %1) #4 {
  %3 = alloca i32, align 4
  %4 = alloca ptr, align 8
  %5 = alloca ptr, align 8
  %6 = alloca i64, align 8
  %7 = alloca i32, align 4
  store ptr %0, ptr %4, align 8, !tbaa !33
  store ptr %1, ptr %5, align 8, !tbaa !36
  call void @llvm.lifetime.start.p0(i64 8, ptr %6) #7
  %8 = load ptr, ptr %4, align 8, !tbaa !33
  %9 = call i64 @PACKET_remaining(ptr noundef %8)
  %10 = icmp ult i64 %9, 1
  br i1 %10, label %11, label %12

11:                                               ; preds = %2
  store i32 0, ptr %3, align 4
  store i32 1, ptr %7, align 4
  br label %31

12:                                               ; preds = %2
  %13 = load ptr, ptr %4, align 8, !tbaa !33
  %14 = getelementptr inbounds nuw %struct.PACKET, ptr %13, i32 0, i32 0
  %15 = load ptr, ptr %14, align 8, !tbaa !29
  %16 = load i8, ptr %15, align 1, !tbaa !8
  %17 = call i64 @ossl_quic_vlint_decode_len(i8 noundef zeroext %16)
  store i64 %17, ptr %6, align 8, !tbaa !11
  %18 = load ptr, ptr %4, align 8, !tbaa !33
  %19 = call i64 @PACKET_remaining(ptr noundef %18)
  %20 = load i64, ptr %6, align 8, !tbaa !11
  %21 = icmp ult i64 %19, %20
  br i1 %21, label %22, label %23

22:                                               ; preds = %12
  store i32 0, ptr %3, align 4
  store i32 1, ptr %7, align 4
  br label %31

23:                                               ; preds = %12
  %24 = load ptr, ptr %4, align 8, !tbaa !33
  %25 = getelementptr inbounds nuw %struct.PACKET, ptr %24, i32 0, i32 0
  %26 = load ptr, ptr %25, align 8, !tbaa !29
  %27 = call i64 @ossl_quic_vlint_decode_unchecked(ptr noundef %26)
  %28 = load ptr, ptr %5, align 8, !tbaa !36
  store i64 %27, ptr %28, align 8, !tbaa !11
  %29 = load ptr, ptr %4, align 8, !tbaa !33
  %30 = load i64, ptr %6, align 8, !tbaa !11
  call void @packet_forward(ptr noundef %29, i64 noundef %30)
  store i32 1, ptr %3, align 4
  store i32 1, ptr %7, align 4
  br label %31

31:                                               ; preds = %23, %22, %11
  call void @llvm.lifetime.end.p0(i64 8, ptr %6) #7
  %32 = load i32, ptr %3, align 4
  ret i32 %32
}

; Function Attrs: inlinehint nounwind uwtable
define internal i32 @PACKET_buf_init(ptr noundef %0, ptr noundef %1, i64 noundef %2) #4 {
  %4 = alloca i32, align 4
  %5 = alloca ptr, align 8
  %6 = alloca ptr, align 8
  %7 = alloca i64, align 8
  store ptr %0, ptr %5, align 8, !tbaa !33
  store ptr %1, ptr %6, align 8, !tbaa !13
  store i64 %2, ptr %7, align 8, !tbaa !11
  %8 = load i64, ptr %7, align 8, !tbaa !11
  %9 = icmp ugt i64 %8, 9223372036854775807
  br i1 %9, label %10, label %11

10:                                               ; preds = %3
  store i32 0, ptr %4, align 4
  br label %18

11:                                               ; preds = %3
  %12 = load ptr, ptr %6, align 8, !tbaa !13
  %13 = load ptr, ptr %5, align 8, !tbaa !33
  %14 = getelementptr inbounds nuw %struct.PACKET, ptr %13, i32 0, i32 0
  store ptr %12, ptr %14, align 8, !tbaa !29
  %15 = load i64, ptr %7, align 8, !tbaa !11
  %16 = load ptr, ptr %5, align 8, !tbaa !33
  %17 = getelementptr inbounds nuw %struct.PACKET, ptr %16, i32 0, i32 1
  store i64 %15, ptr %17, align 8, !tbaa !31
  store i32 1, ptr %4, align 4
  br label %18

18:                                               ; preds = %11, %10
  %19 = load i32, ptr %4, align 4
  ret i32 %19
}

; Function Attrs: nounwind uwtable
define internal i32 @test_PACKET_get_quic_vlint() #0 {
  %1 = alloca i32, align 4
  %2 = alloca %struct.PACKET, align 8
  %3 = alloca i64, align 8
  %4 = alloca i64, align 8
  %5 = alloca i32, align 4
  call void @llvm.lifetime.start.p0(i64 16, ptr %2) #7
  call void @llvm.lifetime.start.p0(i64 8, ptr %3) #7
  call void @llvm.lifetime.start.p0(i64 8, ptr %4) #7
  store i64 0, ptr %3, align 8, !tbaa !11
  br label %6

6:                                                ; preds = %44, %0
  %7 = load i64, ptr %3, align 8, !tbaa !11
  %8 = icmp ult i64 %7, 20
  br i1 %8, label %9, label %47

9:                                                ; preds = %6
  call void @llvm.memset.p0.i64(ptr align 8 %2, i8 0, i64 16, i1 false)
  store i64 55, ptr %4, align 8, !tbaa !11
  %10 = load i64, ptr %3, align 8, !tbaa !11
  %11 = getelementptr inbounds nuw [20 x %struct.quic_test_case], ptr @test_PACKET_get_quic_vlint.cases, i64 0, i64 %10
  %12 = getelementptr inbounds nuw %struct.quic_test_case, ptr %11, i32 0, i32 0
  %13 = getelementptr inbounds [16 x i8], ptr %12, i64 0, i64 0
  %14 = call i32 @PACKET_buf_init(ptr noundef %2, ptr noundef %13, i64 noundef 16)
  %15 = icmp ne i32 %14, 0
  %16 = zext i1 %15 to i32
  %17 = call i32 @test_true(ptr noundef @.str.25, i32 noundef 509, ptr noundef @.str.126, i32 noundef %16)
  %18 = icmp ne i32 %17, 0
  br i1 %18, label %19, label %42

19:                                               ; preds = %9
  %20 = call i32 @PACKET_get_quic_vlint(ptr noundef %2, ptr noundef %4)
  %21 = icmp ne i32 %20, 0
  %22 = zext i1 %21 to i32
  %23 = call i32 @test_true(ptr noundef @.str.25, i32 noundef 510, ptr noundef @.str.127, i32 noundef %22)
  %24 = icmp ne i32 %23, 0
  br i1 %24, label %25, label %42

25:                                               ; preds = %19
  %26 = load i64, ptr %4, align 8, !tbaa !11
  %27 = load i64, ptr %3, align 8, !tbaa !11
  %28 = getelementptr inbounds nuw [20 x %struct.quic_test_case], ptr @test_PACKET_get_quic_vlint.cases, i64 0, i64 %27
  %29 = getelementptr inbounds nuw %struct.quic_test_case, ptr %28, i32 0, i32 2
  %30 = load i64, ptr %29, align 8, !tbaa !21
  %31 = call i32 @test_uint64_t_eq(ptr noundef @.str.25, i32 noundef 511, ptr noundef @.str.128, ptr noundef @.str.129, i64 noundef %26, i64 noundef %30)
  %32 = icmp ne i32 %31, 0
  br i1 %32, label %33, label %42

33:                                               ; preds = %25
  %34 = call i64 @PACKET_remaining(ptr noundef %2)
  %35 = load i64, ptr %3, align 8, !tbaa !11
  %36 = getelementptr inbounds nuw [20 x %struct.quic_test_case], ptr @test_PACKET_get_quic_vlint.cases, i64 0, i64 %35
  %37 = getelementptr inbounds nuw %struct.quic_test_case, ptr %36, i32 0, i32 1
  %38 = load i64, ptr %37, align 16, !tbaa !23
  %39 = sub i64 16, %38
  %40 = call i32 @test_size_t_eq(ptr noundef @.str.25, i32 noundef 513, ptr noundef @.str.27, ptr noundef @.str.130, i64 noundef %34, i64 noundef %39)
  %41 = icmp ne i32 %40, 0
  br i1 %41, label %43, label %42

42:                                               ; preds = %33, %25, %19, %9
  store i32 0, ptr %1, align 4
  store i32 1, ptr %5, align 4
  br label %48

43:                                               ; preds = %33
  br label %44

44:                                               ; preds = %43
  %45 = load i64, ptr %3, align 8, !tbaa !11
  %46 = add i64 %45, 1
  store i64 %46, ptr %3, align 8, !tbaa !11
  br label %6, !llvm.loop !24

47:                                               ; preds = %6
  store i32 1, ptr %1, align 4
  store i32 1, ptr %5, align 4
  br label %48

48:                                               ; preds = %47, %42
  call void @llvm.lifetime.end.p0(i64 8, ptr %4) #7
  call void @llvm.lifetime.end.p0(i64 8, ptr %3) #7
  call void @llvm.lifetime.end.p0(i64 16, ptr %2) #7
  %49 = load i32, ptr %1, align 4
  ret i32 %49
}