; Function Attrs: nounwind uwtable
define internal range(i32 0, 2) i32 @test_PACKET_get_quic_vlint() #0 {
  br label %3

1:                                                ; preds = %16
  %2 = add nuw nsw i64 %.014, 1
  %exitcond.not = icmp eq i64 %2, 20
  br i1 %exitcond.not, label %21, label %3, !llvm.loop !13

3:                                                ; preds = %0, %1
  %.014 = phi i64 [ 0, %0 ], [ %2, %1 ]
  %4 = getelementptr inbounds nuw [20 x %struct.quic_test_case], ptr @test_PACKET_get_quic_vlint.cases, i64 0, i64 %.014
  %5 = tail call i32 @test_true(ptr noundef nonnull @.str.25, i32 noundef 509, ptr noundef nonnull @.str.126, i32 noundef 1) #6
  %.not = icmp eq i32 %5, 0
  br i1 %.not, label %21, label %PACKET_get_quic_vlint.exit

PACKET_get_quic_vlint.exit:                       ; preds = %3
  %6 = load i8, ptr %4, align 16, !tbaa !4
  %7 = lshr i8 %6, 6
  %8 = zext nneg i8 %7 to i32
  %.neg = shl nsw i32 -1, %8
  %9 = tail call i64 @ossl_quic_vlint_decode_unchecked(ptr noundef nonnull %4) #6
  %narrow = add nsw i32 %.neg, 16
  %10 = zext nneg i32 %narrow to i64
  %11 = tail call i32 @test_true(ptr noundef nonnull @.str.25, i32 noundef 510, ptr noundef nonnull @.str.127, i32 noundef 1) #6
  %.not7 = icmp eq i32 %11, 0
  br i1 %.not7, label %21, label %12

12:                                               ; preds = %PACKET_get_quic_vlint.exit
  %13 = getelementptr inbounds nuw i8, ptr %4, i64 24
  %14 = load i64, ptr %13, align 8, !tbaa !14
  %15 = tail call i32 @test_uint64_t_eq(ptr noundef nonnull @.str.25, i32 noundef 511, ptr noundef nonnull @.str.128, ptr noundef nonnull @.str.129, i64 noundef %9, i64 noundef %14) #6
  %.not8 = icmp eq i32 %15, 0
  br i1 %.not8, label %21, label %16

16:                                               ; preds = %12
  %17 = getelementptr inbounds nuw i8, ptr %4, i64 16
  %18 = load i64, ptr %17, align 16, !tbaa !17
  %19 = sub i64 16, %18
  %20 = tail call i32 @test_size_t_eq(ptr noundef nonnull @.str.25, i32 noundef 513, ptr noundef nonnull @.str.27, ptr noundef nonnull @.str.130, i64 noundef %10, i64 noundef %19) #6
  %.not9 = icmp eq i32 %20, 0
  br i1 %.not9, label %21, label %1

21:                                               ; preds = %1, %3, %PACKET_get_quic_vlint.exit, %12, %16
  %.06 = phi i32 [ 0, %16 ], [ 0, %12 ], [ 0, %PACKET_get_quic_vlint.exit ], [ 0, %3 ], [ 1, %1 ]
  ret i32 %.06
}